target datalayout = "e-m:e-p270:32:32-p271:32:32-p272:64:64-i64:64-i128:128-f80:128-n8:16:32:64-S128"
target triple = "x86_64-pc-linux-gnu"

%struct._packet_info = type { ptr, ptr, i32, i32, %struct.nstime_t, %struct.nstime_t, %struct.nstime_t, i8, ptr, ptr, ptr, ptr, %struct._address, %struct._address, %struct._address, %struct._address, %struct._address, %struct._address, i32, ptr, i8, [3 x i8], %struct.anon, i32, i32, i32, i32, ptr, i8, ptr, ptr, i16, i16, i32, i32, i16, i32, i32, ptr, ptr, ptr, i8, i8, i16, i16, i16, i32, i16, i16, ptr, ptr, ptr, ptr, ptr, i32, i32 }
%struct.nstime_t = type { i64, i32 }
%struct._address = type { i32, i32, ptr, ptr }
%struct.anon = type { i8, [3 x i8] }

@hf_giop_typecode_max_length = internal global i32 0, align 4

; Function Attrs: null_pointer_is_valid sspstrong uwtable
define i32 @get_CDR_ulong(ptr noundef %0, ptr noundef %1, i1 noundef zeroext %2, i32 noundef %3) #0 {
  %5 = alloca ptr, align 8
  %6 = alloca ptr, align 8
  %7 = alloca i8, align 1
  %8 = alloca i32, align 4
  %9 = alloca i32, align 4
  store ptr %0, ptr %5, align 8
  store ptr %1, ptr %6, align 8
  %10 = zext i1 %2 to i8
  store i8 %10, ptr %7, align 1
  store i32 %3, ptr %8, align 4
  call void @llvm.lifetime.start.p0(i64 4, ptr %9) #14
  br label %11

11:                                               ; preds = %18, %4
  %12 = load ptr, ptr %6, align 8
  %13 = load i32, ptr %12, align 4
  %14 = load i32, ptr %8, align 4
  %15 = add i32 %13, %14
  %16 = srem i32 %15, 4
  %17 = icmp ne i32 %16, 0
  br i1 %17, label %18, label %22

18:                                               ; preds = %11
  %19 = load ptr, ptr %6, align 8
  %20 = load i32, ptr %19, align 4
  %21 = add i32 %20, 1
  store i32 %21, ptr %19, align 4
  br label %11, !llvm.loop !10

22:                                               ; preds = %11
  %23 = load i8, ptr %7, align 1, !range !8, !noundef !9
  %24 = trunc i8 %23 to i1
  br i1 %24, label %25, label %30

25:                                               ; preds = %22
  %26 = load ptr, ptr %5, align 8
  %27 = load ptr, ptr %6, align 8
  %28 = load i32, ptr %27, align 4
  %29 = call i32 @tvb_get_ntohl(ptr noundef %26, i32 noundef %28)
  br label %35

30:                                               ; preds = %22
  %31 = load ptr, ptr %5, align 8
  %32 = load ptr, ptr %6, align 8
  %33 = load i32, ptr %32, align 4
  %34 = call i32 @tvb_get_letohl(ptr noundef %31, i32 noundef %33)
  br label %35

35:                                               ; preds = %30, %25
  %36 = phi i32 [ %29, %25 ], [ %34, %30 ]
  store i32 %36, ptr %9, align 4
  %37 = load ptr, ptr %6, align 8
  %38 = load i32, ptr %37, align 4
  %39 = add i32 %38, 4
  store i32 %39, ptr %37, align 4
  %40 = load i32, ptr %9, align 4
  call void @llvm.lifetime.end.p0(i64 4, ptr %9) #14
  ret i32 %40
}

; Function Attrs: null_pointer_is_valid sspstrong uwtable
define internal void @dissect_tk_sequence_params(ptr noundef %0, ptr noundef %1, ptr noundef %2, ptr noundef %3, i1 noundef zeroext %4, i32 noundef %5, ptr noundef %6, ptr noundef %7) #0 {
  %9 = alloca ptr, align 8
  %10 = alloca ptr, align 8
  %11 = alloca ptr, align 8
  %12 = alloca ptr, align 8
  %13 = alloca i8, align 1
  %14 = alloca i32, align 4
  %15 = alloca ptr, align 8
  %16 = alloca ptr, align 8
  %17 = alloca i32, align 4
  %18 = alloca i8, align 1
  %19 = alloca ptr, align 8
  %20 = alloca ptr, align 8
  %21 = alloca ptr, align 8
  store ptr %0, ptr %9, align 8
  store ptr %1, ptr %10, align 8
  store ptr %2, ptr %11, align 8
  store ptr %3, ptr %12, align 8
  %22 = zext i1 %4 to i8
  store i8 %22, ptr %13, align 1
  store i32 %5, ptr %14, align 4
  store ptr %6, ptr %15, align 8
  store ptr %7, ptr %16, align 8
  call void @llvm.lifetime.start.p0(i64 4, ptr %17) #14
  call void @llvm.lifetime.start.p0(i64 1, ptr %18) #14
  call void @llvm.lifetime.start.p0(i64 8, ptr %19) #14
  %23 = load ptr, ptr %10, align 8
  %24 = getelementptr inbounds nuw %struct._packet_info, ptr %23, i32 0, i32 51
  %25 = load ptr, ptr %24, align 8
  %26 = call noalias ptr @wmem_alloc(ptr noundef %25, i64 noundef 4) #15
  store ptr %26, ptr %19, align 8
  %27 = load ptr, ptr %9, align 8
  %28 = load ptr, ptr %11, align 8
  %29 = load ptr, ptr %12, align 8
  %30 = load i8, ptr %13, align 1, !range !8, !noundef !9
  %31 = trunc i8 %30 to i1
  %32 = load i32, ptr %14, align 4
  %33 = call i32 @get_CDR_encap_info(ptr noundef %27, ptr noundef %28, ptr noundef %29, i1 noundef zeroext %31, i32 noundef %32, ptr noundef %18, ptr noundef %17)
  call void @llvm.lifetime.start.p0(i64 8, ptr %20) #14
  %34 = load ptr, ptr %10, align 8
  %35 = getelementptr inbounds nuw %struct._packet_info, ptr %34, i32 0, i32 51
  %36 = load ptr, ptr %35, align 8
  %37 = call noalias ptr @wmem_alloc(ptr noundef %36, i64 noundef 4) #15
  store ptr %37, ptr %20, align 8
  call void @llvm.lifetime.start.p0(i64 8, ptr %21) #14
  %38 = load ptr, ptr %10, align 8
  %39 = getelementptr inbounds nuw %struct._packet_info, ptr %38, i32 0, i32 51
  %40 = load ptr, ptr %39, align 8
  %41 = call noalias ptr @wmem_list_new(ptr noundef %40)
  store ptr %41, ptr %21, align 8
  %42 = load ptr, ptr %9, align 8
  %43 = load ptr, ptr %10, align 8
  %44 = load ptr, ptr %11, align 8
  %45 = load ptr, ptr %12, align 8
  %46 = load i8, ptr %18, align 1, !range !8, !noundef !9
  %47 = trunc i8 %46 to i1
  %48 = load i32, ptr %17, align 4
  %49 = load ptr, ptr %15, align 8
  %50 = load ptr, ptr %21, align 8
  %51 = call i32 @get_CDR_typeCode_with_params(ptr noundef %42, ptr noundef %43, ptr noundef %44, ptr noundef %45, i1 noundef zeroext %47, i32 noundef %48, ptr noundef %49, ptr noundef %50)
  %52 = load ptr, ptr %20, align 8
  store i32 %51, ptr %52, align 4
  %53 = load ptr, ptr %9, align 8
  %54 = load ptr, ptr %12, align 8
  %55 = load i8, ptr %13, align 1, !range !8, !noundef !9
  %56 = trunc i8 %55 to i1
  %57 = load i32, ptr %14, align 4
  %58 = call i32 @get_CDR_ulong(ptr noundef %53, ptr noundef %54, i1 noundef zeroext %56, i32 noundef %57)
  %59 = load ptr, ptr %19, align 8
  store i32 %58, ptr %59, align 4
  %60 = load ptr, ptr %11, align 8
  %61 = load i32, ptr @hf_giop_typecode_max_length, align 4
  %62 = load ptr, ptr %9, align 8
  %63 = load ptr, ptr %12, align 8
  %64 = load i32, ptr %63, align 4
  %65 = sub i32 %64, 4
  %66 = load ptr, ptr %19, align 8
  %67 = load i32, ptr %66, align 4
  %68 = call ptr @proto_tree_add_uint(ptr noundef %60, i32 noundef %61, ptr noundef %62, i32 noundef %65, i32 noundef 4, i32 noundef %67)
  %69 = load ptr, ptr %16, align 8
  %70 = load ptr, ptr %20, align 8
  call void @wmem_list_append(ptr noundef %69, ptr noundef %70)
  %71 = load ptr, ptr %16, align 8
  %72 = load ptr, ptr %21, align 8
  call void @wmem_list_append(ptr noundef %71, ptr noundef %72)
  %73 = load ptr, ptr %16, align 8
  %74 = load ptr, ptr %19, align 8
  call void @wmem_list_append(ptr noundef %73, ptr noundef %74)
  call void @llvm.lifetime.end.p0(i64 8, ptr %21) #14
  call void @llvm.lifetime.end.p0(i64 8, ptr %20) #14
  call void @llvm.lifetime.end.p0(i64 8, ptr %19) #14
  call void @llvm.lifetime.end.p0(i64 1, ptr %18) #14
  call void @llvm.lifetime.end.p0(i64 4, ptr %17) #14
  ret void
}